; Function Attrs: mustprogress uwtable
define internal void @_ZN4LuauL8fnVisitVIZNS_5EqSat12canonicalizeIZNS1_6EGraphINS1_8LanguageIJNS_19EqSatSimplification4TNilENS5_8TBooleanENS5_7TNumberENS5_7TStringENS5_7TThreadENS5_12TTopFunctionENS5_9TTopTableENS5_9TTopClassENS5_7TBufferENS5_7TOpaqueENS5_8SBooleanENS5_7SStringENS5_9TFunctionENS5_6TTableENS5_14TImportedTableENS5_6TClassENS5_4TAnyENS5_6TErrorENS5_8TUnknownENS5_6TNeverENS5_5UnionENS5_12IntersectionENS5_8NegationENS5_8TTypeFunENS5_7InvalidENS5_9TNoRefineENS5_6TBoundEEEENS5_8SimplifyEE12canonicalizeERSX_EUlNS1_2IdEE_JS6_S7_S8_S9_SA_SB_SC_SD_SE_SF_SG_SH_SI_SJ_SK_SL_SM_SN_SO_SP_SQ_SR_SS_ST_SU_SV_SW_EEEvRNS4_IJDpT0_EEEOT_EUlS18_E_ST_EEvRS17_PNSt11conditionalIXsr3stdE10is_const_vIT0_EEKvvE4typeE(ptr noundef nonnull readonly align 8 captures(none) dereferenceable(8) %0, ptr noundef readonly captures(none) %1) #5 {
  %3 = load ptr, ptr %0, align 8, !tbaa !1016
  %4 = getelementptr inbounds nuw i8, ptr %1, i64 16
  %5 = load ptr, ptr %4, align 8, !tbaa !8
  %6 = getelementptr inbounds nuw i8, ptr %1, i64 24
  %7 = load ptr, ptr %6, align 8, !tbaa !12
  %.not12.i.i = icmp eq ptr %5, %7
  br i1 %.not12.i.i, label %_ZZN4Luau5EqSat12canonicalizeIZNS0_6EGraphINS0_8LanguageIJNS_19EqSatSimplification4TNilENS4_8TBooleanENS4_7TNumberENS4_7TStringENS4_7TThreadENS4_12TTopFunctionENS4_9TTopTableENS4_9TTopClassENS4_7TBufferENS4_7TOpaqueENS4_8SBooleanENS4_7SStringENS4_9TFunctionENS4_6TTableENS4_14TImportedTableENS4_6TClassENS4_4TAnyENS4_6TErrorENS4_8TUnknownENS4_6TNeverENS4_5UnionENS4_12IntersectionENS4_8NegationENS4_8TTypeFunENS4_7InvalidENS4_9TNoRefineENS4_6TBoundEEEENS4_8SimplifyEE12canonicalizeERSW_EUlNS0_2IdEE_JS5_S6_S7_S8_S9_SA_SB_SC_SD_SE_SF_SG_SH_SI_SJ_SK_SL_SM_SN_SO_SP_SQ_SR_SS_ST_SU_SV_EEEvRNS3_IJDpT0_EEEOT_ENKUlS17_E_clIRSS_EEDaS17_.exit, label %.lr.ph.i.i

.lr.ph.i.i:                                       ; preds = %2, %.lr.ph.i.i
  %.013.i.i = phi ptr [ %11, %.lr.ph.i.i ], [ %5, %2 ]
  %.sroa.0.0.copyload.i.i = load i32, ptr %.013.i.i, align 4, !tbaa !4
  %8 = load ptr, ptr %3, align 8, !tbaa !71
  %9 = getelementptr inbounds nuw i8, ptr %8, i64 8
  %10 = tail call i32 @_ZNK4Luau5EqSat9UnionFind4findENS0_2IdE(ptr noundef nonnull align 8 dereferenceable(48) %9, i32 %.sroa.0.0.copyload.i.i)
  store i32 %10, ptr %.013.i.i, align 4, !tbaa !4
  %11 = getelementptr inbounds nuw i8, ptr %.013.i.i, i64 4
  %.not.i.i = icmp eq ptr %11, %7
  br i1 %.not.i.i, label %_ZZN4Luau5EqSat12canonicalizeIZNS0_6EGraphINS0_8LanguageIJNS_19EqSatSimplification4TNilENS4_8TBooleanENS4_7TNumberENS4_7TStringENS4_7TThreadENS4_12TTopFunctionENS4_9TTopTableENS4_9TTopClassENS4_7TBufferENS4_7TOpaqueENS4_8SBooleanENS4_7SStringENS4_9TFunctionENS4_6TTableENS4_14TImportedTableENS4_6TClassENS4_4TAnyENS4_6TErrorENS4_8TUnknownENS4_6TNeverENS4_5UnionENS4_12IntersectionENS4_8NegationENS4_8TTypeFunENS4_7InvalidENS4_9TNoRefineENS4_6TBoundEEEENS4_8SimplifyEE12canonicalizeERSW_EUlNS0_2IdEE_JS5_S6_S7_S8_S9_SA_SB_SC_SD_SE_SF_SG_SH_SI_SJ_SK_SL_SM_SN_SO_SP_SQ_SR_SS_ST_SU_SV_EEEvRNS3_IJDpT0_EEEOT_ENKUlS17_E_clIRSS_EEDaS17_.exit, label %.lr.ph.i.i

_ZZN4Luau5EqSat12canonicalizeIZNS0_6EGraphINS0_8LanguageIJNS_19EqSatSimplification4TNilENS4_8TBooleanENS4_7TNumberENS4_7TStringENS4_7TThreadENS4_12TTopFunctionENS4_9TTopTableENS4_9TTopClassENS4_7TBufferENS4_7TOpaqueENS4_8SBooleanENS4_7SStringENS4_9TFunctionENS4_6TTableENS4_14TImportedTableENS4_6TClassENS4_4TAnyENS4_6TErrorENS4_8TUnknownENS4_6TNeverENS4_5UnionENS4_12IntersectionENS4_8NegationENS4_8TTypeFunENS4_7InvalidENS4_9TNoRefineENS4_6TBoundEEEENS4_8SimplifyEE12canonicalizeERSW_EUlNS0_2IdEE_JS5_S6_S7_S8_S9_SA_SB_SC_SD_SE_SF_SG_SH_SI_SJ_SK_SL_SM_SN_SO_SP_SQ_SR_SS_ST_SU_SV_EEEvRNS3_IJDpT0_EEEOT_ENKUlS17_E_clIRSS_EEDaS17_.exit: ; preds = %.lr.ph.i.i, %2
  ret void
}